; Function Attrs: mustprogress nounwind uwtable
define dso_local void @_ZN4pbrt3GUID2Ev(ptr noundef nonnull align 8 dereferenceable(248) %0) unnamed_addr #11 align 2 personality ptr @__gxx_personality_v0 {
  %2 = getelementptr inbounds nuw i8, ptr %0, i64 232
  %3 = load ptr, ptr %2, align 8, !tbaa !192
  %4 = icmp eq ptr %3, null
  br i1 %4, label %6, label %5

5:                                                ; preds = %1
  tail call void @_ZdaPv(ptr noundef nonnull %3) #31
  br label %6

6:                                                ; preds = %5, %1
  %7 = getelementptr inbounds nuw i8, ptr %0, i64 240
  %8 = load ptr, ptr %7, align 8, !tbaa !191
  invoke void @glfwDestroyWindow(ptr noundef %8)
          to label %9 unwind label %17

9:                                                ; preds = %6
  invoke void @glfwTerminate()
          to label %10 unwind label %17

10:                                               ; preds = %9
  %11 = getelementptr inbounds nuw i8, ptr %0, i64 8
  %12 = getelementptr inbounds nuw i8, ptr %0, i64 24
  %13 = load ptr, ptr %12, align 8, !tbaa !44
  invoke void @_ZNSt8_Rb_treeIccSt9_IdentityIcESt4lessIcESaIcEE8_M_eraseEPSt13_Rb_tree_nodeIcE(ptr noundef nonnull align 8 dereferenceable(48) %11, ptr noundef %13)
          to label %_ZNSt3setIcSt4lessIcESaIcEED2Ev.exit unwind label %14

14:                                               ; preds = %10
  %15 = landingpad { ptr, i32 }
          catch ptr null
  %16 = extractvalue { ptr, i32 } %15, 0
  tail call void @__clang_call_terminate(ptr %16) #32
  unreachable

_ZNSt3setIcSt4lessIcESaIcEED2Ev.exit:             ; preds = %10
  ret void

17:                                               ; preds = %9, %6
  %18 = landingpad { ptr, i32 }
          catch ptr null
  %19 = extractvalue { ptr, i32 } %18, 0
  tail call void @__clang_call_terminate(ptr %19) #32
  unreachable
}